; ModuleID = '42/1610.c'
source_filename = "42/1610.c"
target datalayout = "e-m:e-p270:32:32-p271:32:32-p272:64:64-i64:64-f80:128-n8:16:32:64-S128"
target triple = "x86_64-pc-linux-gnu"

@.str = private unnamed_addr constant [3 x i8] c"%d\00", align 1
@.str.1 = private unnamed_addr constant [4 x i8] c"%d \00", align 1

; Function Attrs: noinline nounwind uwtable
define dso_local i32 @main() #0 {
  %1 = alloca i32, align 4
  %2 = alloca i32, align 4
  %3 = alloca i32, align 4
  %4 = alloca [100000 x i32], align 16
  %5 = alloca i32, align 4
  %6 = alloca i32, align 4
  store i32 0, i32* %1, align 4
  store i32 0, i32* %6, align 4
  %7 = call i32 (i8*, ...) @__isoc99_scanf(i8* getelementptr inbounds ([3 x i8], [3 x i8]* @.str, i64 0, i64 0), i32* %2)
  store i32 0, i32* %5, align 4
  br label %8

8:                                                ; preds = %17, %0
  %9 = load i32, i32* %5, align 4
  %10 = load i32, i32* %2, align 4
  %11 = icmp slt i32 %9, %10
  br i1 %11, label %12, label %20

12:                                               ; preds = %8
  %13 = load i32, i32* %5, align 4
  %14 = sext i32 %13 to i64
  %15 = getelementptr inbounds [100000 x i32], [100000 x i32]* %4, i64 0, i64 %14
  %16 = call i32 (i8*, ...) @__isoc99_scanf(i8* getelementptr inbounds ([3 x i8], [3 x i8]* @.str, i64 0, i64 0), i32* %15)
  br label %17

17:                                               ; preds = %12
  %18 = load i32, i32* %5, align 4
  %19 = add nsw i32 %18, 1
  store i32 %19, i32* %5, align 4
  br label %8

20:                                               ; preds = %8
  %21 = call i32 (i8*, ...) @__isoc99_scanf(i8* getelementptr inbounds ([3 x i8], [3 x i8]* @.str, i64 0, i64 0), i32* %3)
  store i32 0, i32* %5, align 4
  br label %22

22:                                               ; preds = %44, %20
  %23 = load i32, i32* %5, align 4
  %24 = load i32, i32* %2, align 4
  %25 = icmp slt i32 %23, %24
  br i1 %25, label %26, label %47

26:                                               ; preds = %22
  %27 = load i32, i32* %5, align 4
  %28 = sext i32 %27 to i64
  %29 = getelementptr inbounds [100000 x i32], [100000 x i32]* %4, i64 0, i64 %28
  %30 = load i32, i32* %29, align 4
  %31 = load i32, i32* %3, align 4
  %32 = icmp ne i32 %30, %31
  br i1 %32, label %33, label %43

33:                                               ; preds = %26
  %34 = load i32, i32* %5, align 4
  %35 = sext i32 %34 to i64
  %36 = getelementptr inbounds [100000 x i32], [100000 x i32]* %4, i64 0, i64 %35
  %37 = load i32, i32* %36, align 4
  %38 = load i32, i32* %6, align 4
  %39 = sext i32 %38 to i64
  %40 = getelementptr inbounds [100000 x i32], [100000 x i32]* %4, i64 0, i64 %39
  store i32 %37, i32* %40, align 4
  %41 = load i32, i32* %6, align 4
  %42 = add nsw i32 %41, 1
  store i32 %42, i32* %6, align 4
  br label %43

43:                                               ; preds = %33, %26
  br label %44

44:                                               ; preds = %43
  %45 = load i32, i32* %5, align 4
  %46 = add nsw i32 %45, 1
  store i32 %46, i32* %5, align 4
  br label %22

47:                                               ; preds = %22
  store i32 0, i32* %5, align 4
  br label %48

48:                                               ; preds = %59, %47
  %49 = load i32, i32* %5, align 4
  %50 = load i32, i32* %6, align 4
  %51 = sub nsw i32 %50, 1
  %52 = icmp slt i32 %49, %51
  br i1 %52, label %53, label %62

53:                                               ; preds = %48
  %54 = load i32, i32* %5, align 4
  %55 = sext i32 %54 to i64
  %56 = getelementptr inbounds [100000 x i32], [100000 x i32]* %4, i64 0, i64 %55
  %57 = load i32, i32* %56, align 4
  %58 = call i32 (i8*, ...) @printf(i8* getelementptr inbounds ([4 x i8], [4 x i8]* @.str.1, i64 0, i64 0), i32 %57)
  br label %59

59:                                               ; preds = %53
  %60 = load i32, i32* %5, align 4
  %61 = add nsw i32 %60, 1
  store i32 %61, i32* %5, align 4
  br label %48

62:                                               ; preds = %48
  %63 = load i32, i32* %6, align 4
  %64 = sub nsw i32 %63, 1
  %65 = sext i32 %64 to i64
  %66 = getelementptr inbounds [100000 x i32], [100000 x i32]* %4, i64 0, i64 %65
  %67 = load i32, i32* %66, align 4
  %68 = call i32 (i8*, ...) @printf(i8* getelementptr inbounds ([3 x i8], [3 x i8]* @.str, i64 0, i64 0), i32 %67)
  %69 = call i32 (i8*, ...) @__isoc99_scanf(i8* getelementptr inbounds ([3 x i8], [3 x i8]* @.str, i64 0, i64 0), i32* %2)
  ret i32 0
}

declare dso_local i32 @__isoc99_scanf(i8*, ...) #1

declare dso_local i32 @printf(i8*, ...) #1


!llvm.module.flags = !{!0}
!llvm.ident = !{!1}

!0 = !{i32 1, !"wchar_size", i32 4}
!1 = !{!"clang version 10.0.0-4ubuntu1 "}
